; ModuleID = '58/1101.c'
source_filename = "58/1101.c"
target datalayout = "e-m:e-p270:32:32-p271:32:32-p272:64:64-i64:64-f80:128-n8:16:32:64-S128"
target triple = "x86_64-pc-linux-gnu"

@.str = private unnamed_addr constant [4 x i8] c"%d\0A\00", align 1

; Function Attrs: noinline nounwind uwtable
define dso_local i32 @main() #0 {
  %1 = alloca i32, align 4
  %2 = alloca i32, align 4
  %3 = alloca i32, align 4
  %4 = alloca i32, align 4
  %5 = alloca i32, align 4
  %6 = alloca [81 x i8], align 16
  %7 = alloca i8*, align 8
  store i32 0, i32* %1, align 4
  %8 = call i32 (i8*, ...) @__isoc99_scanf(i8* getelementptr inbounds ([4 x i8], [4 x i8]* @.str, i64 0, i64 0), i32* %2)
  store i32 0, i32* %3, align 4
  br label %9

9:                                                ; preds = %108, %0
  %10 = load i32, i32* %3, align 4
  %11 = load i32, i32* %2, align 4
  %12 = icmp slt i32 %10, %11
  br i1 %12, label %13, label %111

13:                                               ; preds = %9
  store i32 1, i32* %5, align 4
  %14 = getelementptr inbounds [81 x i8], [81 x i8]* %6, i64 0, i64 0
  %15 = call i32 (i8*, ...) bitcast (i32 (...)* @gets to i32 (i8*, ...)*)(i8* %14)
  %16 = getelementptr inbounds [81 x i8], [81 x i8]* %6, i64 0, i64 0
  %17 = call i64 @strlen(i8* %16) #3
  %18 = trunc i64 %17 to i32
  store i32 %18, i32* %4, align 4
  %19 = getelementptr inbounds [81 x i8], [81 x i8]* %6, i64 0, i64 0
  store i8* %19, i8** %7, align 8
  br label %20

20:                                               ; preds = %102, %13
  %21 = load i8*, i8** %7, align 8
  %22 = getelementptr inbounds [81 x i8], [81 x i8]* %6, i64 0, i64 0
  %23 = load i32, i32* %4, align 4
  %24 = sext i32 %23 to i64
  %25 = getelementptr inbounds i8, i8* %22, i64 %24
  %26 = icmp ult i8* %21, %25
  br i1 %26, label %27, label %105

27:                                               ; preds = %20
  %28 = load i8*, i8** %7, align 8
  %29 = getelementptr inbounds [81 x i8], [81 x i8]* %6, i64 0, i64 0
  %30 = icmp eq i8* %28, %29
  br i1 %30, label %31, label %57

31:                                               ; preds = %27
  %32 = load i8*, i8** %7, align 8
  %33 = load i8, i8* %32, align 1
  %34 = sext i8 %33 to i32
  %35 = icmp sge i32 %34, 65
  br i1 %35, label %36, label %41

36:                                               ; preds = %31
  %37 = load i8*, i8** %7, align 8
  %38 = load i8, i8* %37, align 1
  %39 = sext i8 %38 to i32
  %40 = icmp sle i32 %39, 90
  br i1 %40, label %56, label %41

41:                                               ; preds = %36, %31
  %42 = load i8*, i8** %7, align 8
  %43 = load i8, i8* %42, align 1
  %44 = sext i8 %43 to i32
  %45 = icmp sge i32 %44, 97
  br i1 %45, label %46, label %51

46:                                               ; preds = %41
  %47 = load i8*, i8** %7, align 8
  %48 = load i8, i8* %47, align 1
  %49 = sext i8 %48 to i32
  %50 = icmp sle i32 %49, 122
  br i1 %50, label %56, label %51

51:                                               ; preds = %46, %41
  %52 = load i8*, i8** %7, align 8
  %53 = load i8, i8* %52, align 1
  %54 = sext i8 %53 to i32
  %55 = icmp eq i32 %54, 95
  br i1 %55, label %56, label %57

56:                                               ; preds = %51, %46, %36
  br label %101

57:                                               ; preds = %51, %27
  %58 = load i8*, i8** %7, align 8
  %59 = getelementptr inbounds [81 x i8], [81 x i8]* %6, i64 0, i64 0
  %60 = icmp ne i8* %58, %59
  br i1 %60, label %61, label %99

61:                                               ; preds = %57
  %62 = load i8*, i8** %7, align 8
  %63 = load i8, i8* %62, align 1
  %64 = sext i8 %63 to i32
  %65 = icmp sge i32 %64, 97
  br i1 %65, label %66, label %71

66:                                               ; preds = %61
  %67 = load i8*, i8** %7, align 8
  %68 = load i8, i8* %67, align 1
  %69 = sext i8 %68 to i32
  %70 = icmp sle i32 %69, 122
  br i1 %70, label %96, label %71

71:                                               ; preds = %66, %61
  %72 = load i8*, i8** %7, align 8
  %73 = load i8, i8* %72, align 1
  %74 = sext i8 %73 to i32
  %75 = icmp sge i32 %74, 65
  br i1 %75, label %76, label %81

76:                                               ; preds = %71
  %77 = load i8*, i8** %7, align 8
  %78 = load i8, i8* %77, align 1
  %79 = sext i8 %78 to i32
  %80 = icmp sle i32 %79, 90
  br i1 %80, label %96, label %81

81:                                               ; preds = %76, %71
  %82 = load i8*, i8** %7, align 8
  %83 = load i8, i8* %82, align 1
  %84 = sext i8 %83 to i32
  %85 = icmp eq i32 %84, 95
  br i1 %85, label %96, label %86

86:                                               ; preds = %81
  %87 = load i8*, i8** %7, align 8
  %88 = load i8, i8* %87, align 1
  %89 = sext i8 %88 to i32
  %90 = icmp sge i32 %89, 48
  br i1 %90, label %91, label %97

91:                                               ; preds = %86
  %92 = load i8*, i8** %7, align 8
  %93 = load i8, i8* %92, align 1
  %94 = sext i8 %93 to i32
  %95 = icmp sle i32 %94, 57
  br i1 %95, label %96, label %97

96:                                               ; preds = %91, %81, %76, %66
  br label %98

97:                                               ; preds = %91, %86
  store i32 0, i32* %5, align 4
  br label %105

98:                                               ; preds = %96
  br label %100

99:                                               ; preds = %57
  store i32 0, i32* %5, align 4
  br label %105

100:                                              ; preds = %98
  br label %101

101:                                              ; preds = %100, %56
  br label %102

102:                                              ; preds = %101
  %103 = load i8*, i8** %7, align 8
  %104 = getelementptr inbounds i8, i8* %103, i32 1
  store i8* %104, i8** %7, align 8
  br label %20

105:                                              ; preds = %99, %97, %20
  %106 = load i32, i32* %5, align 4
  %107 = call i32 (i8*, ...) @printf(i8* getelementptr inbounds ([4 x i8], [4 x i8]* @.str, i64 0, i64 0), i32 %106)
  br label %108

108:                                              ; preds = %105
  %109 = load i32, i32* %3, align 4
  %110 = add nsw i32 %109, 1
  store i32 %110, i32* %3, align 4
  br label %9

111:                                              ; preds = %9
  ret i32 0
}

declare dso_local i32 @__isoc99_scanf(i8*, ...) #1

declare dso_local i32 @gets(...) #1

; Function Attrs: nounwind readonly
declare dso_local i64 @strlen(i8*) #2

declare dso_local i32 @printf(i8*, ...) #1


!llvm.module.flags = !{!0}
!llvm.ident = !{!1}

!0 = !{i32 1, !"wchar_size", i32 4}
!1 = !{!"clang version 10.0.0-4ubuntu1 "}
