; ModuleID = 'source-C-CXX/57/1101.c'
source_filename = "source-C-CXX/57/1101.c"
target datalayout = "e-m:e-p270:32:32-p271:32:32-p272:64:64-i64:64-f80:128-n8:16:32:64-S128"
target triple = "x86_64-pc-linux-gnu"

@.str = private unnamed_addr constant [4 x i8] c"%d\0A\00", align 1

; Function Attrs: nounwind sspstrong uwtable
define dso_local i32 @main() local_unnamed_addr #0 {
  %1 = alloca i32, align 4
  %2 = alloca [81 x i8], align 16
  %3 = bitcast i32* %1 to i8*
  call void @llvm.lifetime.start.p0i8(i64 4, i8* nonnull %3) #6
  %4 = getelementptr inbounds [81 x i8], [81 x i8]* %2, i64 0, i64 0
  call void @llvm.lifetime.start.p0i8(i64 81, i8* nonnull %4) #6
  %5 = call i32 (i8*, ...) @__isoc99_scanf(i8* getelementptr inbounds ([4 x i8], [4 x i8]* @.str, i64 0, i64 0), i32* nonnull %1)
  %6 = load i32, i32* %1, align 4, !tbaa !5
  %7 = icmp sgt i32 %6, 0
  br i1 %7, label %8, label %52

8:                                                ; preds = %0, %46
  %9 = phi i32 [ %49, %46 ], [ 0, %0 ]
  %10 = call i32 (i8*, ...) bitcast (i32 (...)* @gets to i32 (i8*, ...)*)(i8* nonnull %4) #6
  %11 = call i64 @strlen(i8* noundef nonnull %4) #7
  %12 = trunc i64 %11 to i32
  %13 = icmp sgt i32 %12, 0
  br i1 %13, label %14, label %46

14:                                               ; preds = %8
  %15 = shl i64 %11, 32
  %16 = ashr exact i64 %15, 32
  %17 = call i64 @llvm.smax.i64(i64 %16, i64 1)
  br label %18

18:                                               ; preds = %14, %42
  %19 = phi i8* [ %44, %42 ], [ %4, %14 ]
  %20 = phi i64 [ %43, %42 ], [ 0, %14 ]
  %21 = icmp eq i64 %20, 0
  %22 = load i8, i8* %19, align 1, !tbaa !9
  br i1 %21, label %23, label %31

23:                                               ; preds = %18
  %24 = add i8 %22, -65
  %25 = icmp ult i8 %24, 26
  br i1 %25, label %42, label %26

26:                                               ; preds = %23
  %27 = add i8 %22, -97
  %28 = icmp ult i8 %27, 26
  %29 = icmp eq i8 %22, 95
  %30 = or i1 %29, %28
  br i1 %30, label %42, label %46

31:                                               ; preds = %18
  %32 = add i8 %22, -97
  %33 = icmp ult i8 %32, 26
  br i1 %33, label %42, label %34

34:                                               ; preds = %31
  %35 = add i8 %22, -65
  %36 = icmp ult i8 %35, 26
  %37 = icmp eq i8 %22, 95
  %38 = or i1 %37, %36
  %39 = add i8 %22, -48
  %40 = icmp ult i8 %39, 10
  %41 = or i1 %40, %38
  br i1 %41, label %42, label %46

42:                                               ; preds = %34, %31, %26, %23
  %43 = add nuw nsw i64 %20, 1
  %44 = getelementptr inbounds [81 x i8], [81 x i8]* %2, i64 0, i64 %43
  %45 = icmp eq i64 %43, %17
  br i1 %45, label %46, label %18, !llvm.loop !10

46:                                               ; preds = %42, %26, %34, %8
  %47 = phi i32 [ 1, %8 ], [ 0, %34 ], [ 0, %26 ], [ 1, %42 ]
  %48 = call i32 (i8*, ...) @printf(i8* nonnull dereferenceable(1) getelementptr inbounds ([4 x i8], [4 x i8]* @.str, i64 0, i64 0), i32 %47)
  %49 = add nuw nsw i32 %9, 1
  %50 = load i32, i32* %1, align 4, !tbaa !5
  %51 = icmp slt i32 %49, %50
  br i1 %51, label %8, label %52, !llvm.loop !12

52:                                               ; preds = %46, %0
  call void @llvm.lifetime.end.p0i8(i64 81, i8* nonnull %4) #6
  call void @llvm.lifetime.end.p0i8(i64 4, i8* nonnull %3) #6
  ret i32 0
}

; Function Attrs: argmemonly mustprogress nofree nosync nounwind willreturn
declare void @llvm.lifetime.start.p0i8(i64 immarg, i8* nocapture) #1

; Function Attrs: nofree nounwind
declare noundef i32 @__isoc99_scanf(i8* nocapture noundef readonly, ...) local_unnamed_addr #2

declare i32 @gets(...) local_unnamed_addr #3

; Function Attrs: argmemonly mustprogress nofree nounwind readonly willreturn
declare i64 @strlen(i8* nocapture) local_unnamed_addr #4

; Function Attrs: nofree nounwind
declare noundef i32 @printf(i8* nocapture noundef readonly, ...) local_unnamed_addr #2

; Function Attrs: argmemonly mustprogress nofree nosync nounwind willreturn
declare void @llvm.lifetime.end.p0i8(i64 immarg, i8* nocapture) #1

; Function Attrs: nofree nosync nounwind readnone speculatable willreturn
declare i64 @llvm.smax.i64(i64, i64) #5


!llvm.module.flags = !{!0, !1, !2, !3}
!llvm.ident = !{!4}

!0 = !{i32 1, !"wchar_size", i32 4}
!1 = !{i32 7, !"PIC Level", i32 2}
!2 = !{i32 7, !"PIE Level", i32 2}
!3 = !{i32 7, !"uwtable", i32 1}
!4 = !{!"clang version 13.0.0"}
!5 = !{!6, !6, i64 0}
!6 = !{!"int", !7, i64 0}
!7 = !{!"omnipotent char", !8, i64 0}
!8 = !{!"Simple C/C++ TBAA"}
!9 = !{!7, !7, i64 0}
!10 = distinct !{!10, !11}
!11 = !{!"llvm.loop.mustprogress"}
!12 = distinct !{!12, !11}
